target datalayout = "e-m:e-p270:32:32-p271:32:32-p272:64:64-i64:64-i128:128-f80:128-n8:16:32:64-S128"
target triple = "x86_64-pc-linux-gnu"

%struct.mbedtls_pk_context = type { ptr, ptr }
%struct.mbedtls_ecp_keypair = type { %struct.mbedtls_ecp_group, %struct.mbedtls_mpi, %struct.mbedtls_ecp_point }
%struct.mbedtls_ecp_group = type { i32, %struct.mbedtls_mpi, %struct.mbedtls_mpi, %struct.mbedtls_mpi, %struct.mbedtls_ecp_point, %struct.mbedtls_mpi, i64, i64, i32, ptr, ptr, ptr, ptr, ptr, i64 }
%struct.mbedtls_mpi = type { ptr, i16, i16 }
%struct.mbedtls_ecp_point = type { %struct.mbedtls_mpi, %struct.mbedtls_mpi, %struct.mbedtls_mpi }

; Function Attrs: inlinehint nounwind uwtable
define internal ptr @mbedtls_pk_ec_rw(ptr %0, ptr %1) #3 {
  %3 = alloca ptr, align 8
  %4 = alloca %struct.mbedtls_pk_context, align 8
  %5 = getelementptr inbounds nuw { ptr, ptr }, ptr %4, i32 0, i32 0
  store ptr %0, ptr %5, align 8
  %6 = getelementptr inbounds nuw { ptr, ptr }, ptr %4, i32 0, i32 1
  store ptr %1, ptr %6, align 8
  %7 = call i32 @mbedtls_pk_get_type(ptr noundef %4)
  switch i32 %7, label %11 [
    i32 2, label %8
    i32 3, label %8
    i32 4, label %8
  ]

8:                                                ; preds = %2, %2, %2
  %9 = getelementptr inbounds nuw %struct.mbedtls_pk_context, ptr %4, i32 0, i32 1
  %10 = load ptr, ptr %9, align 8, !tbaa !17
  store ptr %10, ptr %3, align 8
  br label %12

11:                                               ; preds = %2
  store ptr null, ptr %3, align 8
  br label %12

12:                                               ; preds = %11, %8
  %13 = load ptr, ptr %3, align 8
  ret ptr %13
}

; Function Attrs: nounwind uwtable
define internal i32 @pk_write_ec_private(ptr noundef %0, ptr noundef %1, ptr noundef %2) #0 {
  %4 = alloca i32, align 4
  %5 = alloca ptr, align 8
  %6 = alloca ptr, align 8
  %7 = alloca ptr, align 8
  %8 = alloca i64, align 8
  %9 = alloca i32, align 4
  %10 = alloca [66 x i8], align 16
  %11 = alloca ptr, align 8
  %12 = alloca i32, align 4
  store ptr %0, ptr %5, align 8, !tbaa !3
  store ptr %1, ptr %6, align 8, !tbaa !9
  store ptr %2, ptr %7, align 8, !tbaa !11
  call void @llvm.lifetime.start.p0(i64 8, ptr %8) #7
  call void @llvm.lifetime.start.p0(i64 4, ptr %9) #7
  store i32 -110, ptr %9, align 4, !tbaa !13
  call void @llvm.lifetime.start.p0(i64 66, ptr %10) #7
  call void @llvm.lifetime.start.p0(i64 8, ptr %11) #7
  %13 = load ptr, ptr %7, align 8, !tbaa !11
  %14 = getelementptr inbounds nuw { ptr, ptr }, ptr %13, i32 0, i32 0
  %15 = load ptr, ptr %14, align 8
  %16 = getelementptr inbounds nuw { ptr, ptr }, ptr %13, i32 0, i32 1
  %17 = load ptr, ptr %16, align 8
  %18 = call ptr @mbedtls_pk_ec_rw(ptr %15, ptr %17)
  store ptr %18, ptr %11, align 8, !tbaa !20
  %19 = load ptr, ptr %11, align 8, !tbaa !20
  %20 = getelementptr inbounds nuw %struct.mbedtls_ecp_keypair, ptr %19, i32 0, i32 0
  %21 = getelementptr inbounds nuw %struct.mbedtls_ecp_group, ptr %20, i32 0, i32 6
  %22 = load i64, ptr %21, align 8, !tbaa !31
  %23 = add i64 %22, 7
  %24 = udiv i64 %23, 8
  store i64 %24, ptr %8, align 8, !tbaa !15
  %25 = load ptr, ptr %11, align 8, !tbaa !20
  %26 = getelementptr inbounds [66 x i8], ptr %10, i64 0, i64 0
  %27 = call i32 @mbedtls_ecp_write_key_ext(ptr noundef %25, ptr noundef %8, ptr noundef %26, i64 noundef 66)
  store i32 %27, ptr %9, align 4, !tbaa !13
  %28 = load i32, ptr %9, align 4, !tbaa !13
  %29 = icmp ne i32 %28, 0
  br i1 %29, label %30, label %31

30:                                               ; preds = %3
  store i32 2, ptr %12, align 4
  br label %32

31:                                               ; preds = %3
  store i32 0, ptr %12, align 4
  br label %32

32:                                               ; preds = %30, %31
  call void @llvm.lifetime.end.p0(i64 8, ptr %11) #7
  %33 = load i32, ptr %12, align 4
  switch i32 %33, label %43 [
    i32 0, label %34
    i32 2, label %40
  ]

34:                                               ; preds = %32
  %35 = load ptr, ptr %5, align 8, !tbaa !3
  %36 = load ptr, ptr %6, align 8, !tbaa !9
  %37 = getelementptr inbounds [66 x i8], ptr %10, i64 0, i64 0
  %38 = load i64, ptr %8, align 8, !tbaa !15
  %39 = call i32 @mbedtls_asn1_write_octet_string(ptr noundef %35, ptr noundef %36, ptr noundef %37, i64 noundef %38)
  store i32 %39, ptr %9, align 4, !tbaa !13
  br label %40

40:                                               ; preds = %34, %32
  %41 = getelementptr inbounds [66 x i8], ptr %10, i64 0, i64 0
  call void @mbedtls_platform_zeroize(ptr noundef %41, i64 noundef 66)
  %42 = load i32, ptr %9, align 4, !tbaa !13
  store i32 %42, ptr %4, align 4
  store i32 1, ptr %12, align 4
  br label %43

43:                                               ; preds = %40, %32
  call void @llvm.lifetime.end.p0(i64 66, ptr %10) #7
  call void @llvm.lifetime.end.p0(i64 4, ptr %9) #7
  call void @llvm.lifetime.end.p0(i64 8, ptr %8) #7
  %44 = load i32, ptr %4, align 4
  ret i32 %44
}