; Function Attrs: nounwind uwtable
define internal fastcc i32 @pk_write_ec_private(ptr noundef nonnull %0, ptr noundef %1, ptr %.0.val, ptr %.8.val) unnamed_addr #0 {
  %3 = alloca %struct.mbedtls_pk_context, align 8
  %4 = alloca i64, align 8
  %5 = alloca [66 x i8], align 16
  call void @llvm.lifetime.start.p0(i64 8, ptr nonnull %4) #6
  call void @llvm.lifetime.start.p0(i64 66, ptr nonnull %5) #6
  call void @llvm.lifetime.start.p0(i64 16, ptr nonnull %3)
  store ptr %.0.val, ptr %3, align 8
  %6 = getelementptr inbounds nuw i8, ptr %3, i64 8
  store ptr %.8.val, ptr %6, align 8
  %7 = call i32 @mbedtls_pk_get_type(ptr noundef nonnull %3) #6
  %.off.i = add i32 %7, -2
  %switch.i = icmp ult i32 %.off.i, 3
  %8 = load ptr, ptr %6, align 8
  %.0.i = select i1 %switch.i, ptr %8, ptr null
  call void @llvm.lifetime.end.p0(i64 16, ptr nonnull %3)
  %9 = getelementptr inbounds nuw i8, ptr %8, i64 120
  %10 = load i64, ptr %9, align 8, !tbaa !20
  %11 = add i64 %10, 7
  %12 = lshr i64 %11, 3
  store i64 %12, ptr %4, align 8, !tbaa !3
  %13 = call i32 @mbedtls_ecp_write_key_ext(ptr noundef %.0.i, ptr noundef nonnull %4, ptr noundef nonnull %5, i64 noundef 66) #6
  %.not = icmp eq i32 %13, 0
  br i1 %.not, label %14, label %17

14:                                               ; preds = %2
  %15 = load i64, ptr %4, align 8, !tbaa !3
  %16 = call i32 @mbedtls_asn1_write_octet_string(ptr noundef nonnull %0, ptr noundef %1, ptr noundef nonnull %5, i64 noundef %15) #6
  br label %17

17:                                               ; preds = %2, %14
  %.09 = phi i32 [ %13, %2 ], [ %16, %14 ]
  call void @mbedtls_platform_zeroize(ptr noundef nonnull %5, i64 noundef 66) #6
  call void @llvm.lifetime.end.p0(i64 66, ptr nonnull %5) #6
  call void @llvm.lifetime.end.p0(i64 8, ptr nonnull %4) #6
  ret i32 %.09
}